; Function Attrs: mustprogress uwtable
define void @_ZN5faiss3lsq13LSQTimerScope6finishEv(ptr noundef nonnull align 8 dereferenceable(49) %0) local_unnamed_addr #1 align 2 {
  %2 = getelementptr inbounds i8, ptr %0, i64 48
  %3 = load i8, ptr %2, align 8
  %4 = and i8 %3, 1
  %.not = icmp eq i8 %4, 0
  br i1 %.not, label %5, label %16

5:                                                ; preds = %1
  %6 = tail call noundef double @_ZN5faiss12getmillisecsEv()
  %7 = load double, ptr %0, align 8
  %8 = fsub double %6, %7
  %9 = getelementptr inbounds i8, ptr %0, i64 8
  %10 = load ptr, ptr %9, align 8
  %11 = getelementptr inbounds i8, ptr %0, i64 16
  %12 = tail call ptr @_ZNKSt10_HashtableINSt7__cxx1112basic_stringIcSt11char_traitsIcESaIcEEESt4pairIKS5_dESaIS8_ENSt8__detail10_Select1stESt8equal_toIS5_ESt4hashIS5_ENSA_18_Mod_range_hashingENSA_20_Default_ranged_hashENSA_20_Prime_rehash_policyENSA_17_Hashtable_traitsILb1ELb0ELb1EEEE4findERS7_(ptr noundef nonnull align 8 dereferenceable(56) %10, ptr noundef nonnull align 8 dereferenceable(32) %11)
  %.not.i.i.not.i = icmp eq ptr %12, null
  %13 = tail call noundef nonnull align 8 dereferenceable(8) ptr @_ZNSt8__detail9_Map_baseINSt7__cxx1112basic_stringIcSt11char_traitsIcESaIcEEESt4pairIKS6_dESaIS9_ENS_10_Select1stESt8equal_toIS6_ESt4hashIS6_ENS_18_Mod_range_hashingENS_20_Default_ranged_hashENS_20_Prime_rehash_policyENS_17_Hashtable_traitsILb1ELb0ELb1EEELb1EEixERS8_(ptr noundef nonnull align 1 dereferenceable(1) %10, ptr noundef nonnull align 8 dereferenceable(32) %11)
  %14 = load double, ptr %13, align 8
  %15 = fadd double %8, %14
  %.sink.i = select i1 %.not.i.i.not.i, double %8, double %15
  store double %.sink.i, ptr %13, align 8
  store i8 1, ptr %2, align 8
  br label %16

16:                                               ; preds = %5, %1
  ret void
}